target datalayout = "e-m:e-p270:32:32-p271:32:32-p272:64:64-i64:64-i128:128-f80:128-n8:16:32:64-S128"
target triple = "x86_64-unknown-linux-gnu"

%"class.icu_75::UnicodeString" = type { %"class.icu_75::Replaceable", %"union.icu_75::UnicodeString::StackBufferOrFields" }
%"class.icu_75::Replaceable" = type { %"class.icu_75::UObject" }
%"class.icu_75::UObject" = type { ptr }
%"union.icu_75::UnicodeString::StackBufferOrFields" = type { %struct.anon.0, [32 x i8] }
%struct.anon.0 = type { i16, i32, i32, ptr }
%"class.icu_75::CompoundTransliterator" = type { %"class.icu_75::Transliterator.base", ptr, i32, i32 }
%"class.icu_75::Transliterator.base" = type <{ %"class.icu_75::UObject", %"class.icu_75::UnicodeString", ptr, i32 }>

; Function Attrs: mustprogress uwtable
define noundef nonnull align 8 dereferenceable(104) ptr @_ZN6icu_7522CompoundTransliteratoraSERKS0_(ptr noundef nonnull align 8 dereferenceable(104) %this, ptr noundef nonnull align 8 dereferenceable(104) %t) #1 align 2 {
entry:
  %retval = alloca ptr, align 8
  %this.addr = alloca ptr, align 8
  %t.addr = alloca ptr, align 8
  %i = alloca i32, align 4
  %failed = alloca i8, align 1
  %n = alloca i32, align 4
  store ptr %this, ptr %this.addr, align 8
  store ptr %t, ptr %t.addr, align 8
  %this1 = load ptr, ptr %this.addr, align 8
  %0 = load ptr, ptr %t.addr, align 8
  %cmp = icmp eq ptr %this1, %0
  br i1 %cmp, label %if.then, label %if.end

if.then:                                          ; preds = %entry
  store ptr %this1, ptr %retval, align 8
  br label %return

if.end:                                           ; preds = %entry
  %1 = load ptr, ptr %t.addr, align 8
  %call = call noundef nonnull align 8 dereferenceable(84) ptr @_ZN6icu_7514TransliteratoraSERKS0_(ptr noundef nonnull align 8 dereferenceable(84) %this1, ptr noundef nonnull align 8 dereferenceable(84) %1)
  store i32 0, ptr %i, align 4
  store i8 0, ptr %failed, align 1
  %trans = getelementptr inbounds %"class.icu_75::CompoundTransliterator", ptr %this1, i32 0, i32 1
  %2 = load ptr, ptr %trans, align 8
  %cmp2 = icmp ne ptr %2, null
  br i1 %cmp2, label %if.then3, label %if.end9

if.then3:                                         ; preds = %if.end
  store i32 0, ptr %i, align 4
  br label %for.cond

for.cond:                                         ; preds = %for.inc, %if.then3
  %3 = load i32, ptr %i, align 4
  %count = getelementptr inbounds %"class.icu_75::CompoundTransliterator", ptr %this1, i32 0, i32 2
  %4 = load i32, ptr %count, align 8
  %cmp4 = icmp slt i32 %3, %4
  br i1 %cmp4, label %for.body, label %for.end

for.body:                                         ; preds = %for.cond
  %trans5 = getelementptr inbounds %"class.icu_75::CompoundTransliterator", ptr %this1, i32 0, i32 1
  %5 = load ptr, ptr %trans5, align 8
  %6 = load i32, ptr %i, align 4
  %idxprom = sext i32 %6 to i64
  %arrayidx = getelementptr inbounds ptr, ptr %5, i64 %idxprom
  %7 = load ptr, ptr %arrayidx, align 8
  %isnull = icmp eq ptr %7, null
  br i1 %isnull, label %delete.end, label %delete.notnull

delete.notnull:                                   ; preds = %for.body
  %vtable = load ptr, ptr %7, align 8
  %vfn = getelementptr inbounds ptr, ptr %vtable, i64 1
  %8 = load ptr, ptr %vfn, align 8
  call void %8(ptr noundef nonnull align 8 dereferenceable(84) %7) #6
  br label %delete.end

delete.end:                                       ; preds = %delete.notnull, %for.body
  %trans6 = getelementptr inbounds %"class.icu_75::CompoundTransliterator", ptr %this1, i32 0, i32 1
  %9 = load ptr, ptr %trans6, align 8
  %10 = load i32, ptr %i, align 4
  %idxprom7 = sext i32 %10 to i64
  %arrayidx8 = getelementptr inbounds ptr, ptr %9, i64 %idxprom7
  store ptr null, ptr %arrayidx8, align 8
  br label %for.inc

for.inc:                                          ; preds = %delete.end
  %11 = load i32, ptr %i, align 4
  %inc = add nsw i32 %11, 1
  store i32 %inc, ptr %i, align 4
  br label %for.cond, !llvm.loop !11

for.end:                                          ; preds = %for.cond
  br label %if.end9

if.end9:                                          ; preds = %for.end, %if.end
  %12 = load ptr, ptr %t.addr, align 8
  %count10 = getelementptr inbounds %"class.icu_75::CompoundTransliterator", ptr %12, i32 0, i32 2
  %13 = load i32, ptr %count10, align 8
  %count11 = getelementptr inbounds %"class.icu_75::CompoundTransliterator", ptr %this1, i32 0, i32 2
  %14 = load i32, ptr %count11, align 8
  %cmp12 = icmp sgt i32 %13, %14
  br i1 %cmp12, label %if.then13, label %if.end22

if.then13:                                        ; preds = %if.end9
  %trans14 = getelementptr inbounds %"class.icu_75::CompoundTransliterator", ptr %this1, i32 0, i32 1
  %15 = load ptr, ptr %trans14, align 8
  %cmp15 = icmp ne ptr %15, null
  br i1 %cmp15, label %if.then16, label %if.end18

if.then16:                                        ; preds = %if.then13
  %trans17 = getelementptr inbounds %"class.icu_75::CompoundTransliterator", ptr %this1, i32 0, i32 1
  %16 = load ptr, ptr %trans17, align 8
  call void @uprv_free_75(ptr noundef %16)
  br label %if.end18

if.end18:                                         ; preds = %if.then16, %if.then13
  %17 = load ptr, ptr %t.addr, align 8
  %count19 = getelementptr inbounds %"class.icu_75::CompoundTransliterator", ptr %17, i32 0, i32 2
  %18 = load i32, ptr %count19, align 8
  %conv = sext i32 %18 to i64
  %mul = mul i64 %conv, 8
  %call20 = call noalias ptr @uprv_malloc_75(i64 noundef %mul) #7
  %trans21 = getelementptr inbounds %"class.icu_75::CompoundTransliterator", ptr %this1, i32 0, i32 1
  store ptr %call20, ptr %trans21, align 8
  br label %if.end22

if.end22:                                         ; preds = %if.end18, %if.end9
  %19 = load ptr, ptr %t.addr, align 8
  %count23 = getelementptr inbounds %"class.icu_75::CompoundTransliterator", ptr %19, i32 0, i32 2
  %20 = load i32, ptr %count23, align 8
  %count24 = getelementptr inbounds %"class.icu_75::CompoundTransliterator", ptr %this1, i32 0, i32 2
  store i32 %20, ptr %count24, align 8
  %trans25 = getelementptr inbounds %"class.icu_75::CompoundTransliterator", ptr %this1, i32 0, i32 1
  %21 = load ptr, ptr %trans25, align 8
  %cmp26 = icmp ne ptr %21, null
  br i1 %cmp26, label %if.then27, label %if.end50

if.then27:                                        ; preds = %if.end22
  store i32 0, ptr %i, align 4
  br label %for.cond28

for.cond28:                                       ; preds = %for.inc47, %if.then27
  %22 = load i32, ptr %i, align 4
  %count29 = getelementptr inbounds %"class.icu_75::CompoundTransliterator", ptr %this1, i32 0, i32 2
  %23 = load i32, ptr %count29, align 8
  %cmp30 = icmp slt i32 %22, %23
  br i1 %cmp30, label %for.body31, label %for.end49

for.body31:                                       ; preds = %for.cond28
  %24 = load ptr, ptr %t.addr, align 8
  %trans32 = getelementptr inbounds %"class.icu_75::CompoundTransliterator", ptr %24, i32 0, i32 1
  %25 = load ptr, ptr %trans32, align 8
  %26 = load i32, ptr %i, align 4
  %idxprom33 = sext i32 %26 to i64
  %arrayidx34 = getelementptr inbounds ptr, ptr %25, i64 %idxprom33
  %27 = load ptr, ptr %arrayidx34, align 8
  %vtable35 = load ptr, ptr %27, align 8
  %vfn36 = getelementptr inbounds ptr, ptr %vtable35, i64 3
  %28 = load ptr, ptr %vfn36, align 8
  %call37 = call noundef ptr %28(ptr noundef nonnull align 8 dereferenceable(84) %27)
  %trans38 = getelementptr inbounds %"class.icu_75::CompoundTransliterator", ptr %this1, i32 0, i32 1
  %29 = load ptr, ptr %trans38, align 8
  %30 = load i32, ptr %i, align 4
  %idxprom39 = sext i32 %30 to i64
  %arrayidx40 = getelementptr inbounds ptr, ptr %29, i64 %idxprom39
  store ptr %call37, ptr %arrayidx40, align 8
  %trans41 = getelementptr inbounds %"class.icu_75::CompoundTransliterator", ptr %this1, i32 0, i32 1
  %31 = load ptr, ptr %trans41, align 8
  %32 = load i32, ptr %i, align 4
  %idxprom42 = sext i32 %32 to i64
  %arrayidx43 = getelementptr inbounds ptr, ptr %31, i64 %idxprom42
  %33 = load ptr, ptr %arrayidx43, align 8
  %cmp44 = icmp eq ptr %33, null
  br i1 %cmp44, label %if.then45, label %if.end46

if.then45:                                        ; preds = %for.body31
  store i8 1, ptr %failed, align 1
  br label %for.end49

if.end46:                                         ; preds = %for.body31
  br label %for.inc47

for.inc47:                                        ; preds = %if.end46
  %34 = load i32, ptr %i, align 4
  %inc48 = add nsw i32 %34, 1
  store i32 %inc48, ptr %i, align 4
  br label %for.cond28, !llvm.loop !12

for.end49:                                        ; preds = %if.then45, %for.cond28
  br label %if.end50

if.end50:                                         ; preds = %for.end49, %if.end22
  %35 = load i8, ptr %failed, align 1
  %tobool = icmp ne i8 %35, 0
  br i1 %tobool, label %land.lhs.true, label %if.end64

land.lhs.true:                                    ; preds = %if.end50
  %36 = load i32, ptr %i, align 4
  %cmp51 = icmp sgt i32 %36, 0
  br i1 %cmp51, label %if.then52, label %if.end64

if.then52:                                        ; preds = %land.lhs.true
  %37 = load i32, ptr %i, align 4
  %sub = sub nsw i32 %37, 1
  store i32 %sub, ptr %n, align 4
  br label %for.cond53

for.cond53:                                       ; preds = %for.inc62, %if.then52
  %38 = load i32, ptr %n, align 4
  %cmp54 = icmp sge i32 %38, 0
  br i1 %cmp54, label %for.body55, label %for.end63

for.body55:                                       ; preds = %for.cond53
  %trans56 = getelementptr inbounds %"class.icu_75::CompoundTransliterator", ptr %this1, i32 0, i32 1
  %39 = load ptr, ptr %trans56, align 8
  %40 = load i32, ptr %n, align 4
  %idxprom57 = sext i32 %40 to i64
  %arrayidx58 = getelementptr inbounds ptr, ptr %39, i64 %idxprom57
  %41 = load ptr, ptr %arrayidx58, align 8
  call void @uprv_free_75(ptr noundef %41)
  %trans59 = getelementptr inbounds %"class.icu_75::CompoundTransliterator", ptr %this1, i32 0, i32 1
  %42 = load ptr, ptr %trans59, align 8
  %43 = load i32, ptr %n, align 4
  %idxprom60 = sext i32 %43 to i64
  %arrayidx61 = getelementptr inbounds ptr, ptr %42, i64 %idxprom60
  store ptr null, ptr %arrayidx61, align 8
  br label %for.inc62

for.inc62:                                        ; preds = %for.body55
  %44 = load i32, ptr %n, align 4
  %dec = add nsw i32 %44, -1
  store i32 %dec, ptr %n, align 4
  br label %for.cond53, !llvm.loop !13

for.end63:                                        ; preds = %for.cond53
  br label %if.end64

if.end64:                                         ; preds = %for.end63, %land.lhs.true, %if.end50
  %45 = load ptr, ptr %t.addr, align 8
  %numAnonymousRBTs = getelementptr inbounds %"class.icu_75::CompoundTransliterator", ptr %45, i32 0, i32 3
  %46 = load i32, ptr %numAnonymousRBTs, align 4
  %numAnonymousRBTs65 = getelementptr inbounds %"class.icu_75::CompoundTransliterator", ptr %this1, i32 0, i32 3
  store i32 %46, ptr %numAnonymousRBTs65, align 4
  store ptr %this1, ptr %retval, align 8
  br label %return

return:                                           ; preds = %if.end64, %if.then
  %47 = load ptr, ptr %retval, align 8
  ret ptr %47
}