; Function Attrs: mustprogress uwtable
define noundef nonnull align 8 dereferenceable(104) ptr @_ZN6icu_7522CompoundTransliteratoraSERKS0_(ptr noundef nonnull returned align 8 dereferenceable(104) %this, ptr noundef nonnull align 8 dereferenceable(104) %t) local_unnamed_addr #1 align 2 {
entry:
  %cmp = icmp eq ptr %this, %t
  br i1 %cmp, label %return, label %if.end

if.end:                                           ; preds = %entry
  %call = tail call noundef nonnull align 8 dereferenceable(84) ptr @_ZN6icu_7514TransliteratoraSERKS0_(ptr noundef nonnull align 8 dereferenceable(84) %this, ptr noundef nonnull align 8 dereferenceable(84) %t)
  %trans = getelementptr inbounds i8, ptr %this, i64 88
  %0 = load ptr, ptr %trans, align 8
  %cmp2.not = icmp ne ptr %0, null
  %count11.phi.trans.insert = getelementptr inbounds i8, ptr %this, i64 96
  %.pre42 = load i32, ptr %count11.phi.trans.insert, align 8
  %cmp427 = icmp sgt i32 %.pre42, 0
  %or.cond47 = select i1 %cmp2.not, i1 %cmp427, i1 false
  br i1 %or.cond47, label %for.body, label %if.end9

for.body:                                         ; preds = %if.end, %delete.end
  %indvars.iv = phi i64 [ %indvars.iv.next, %delete.end ], [ 0, %if.end ]
  %1 = load ptr, ptr %trans, align 8
  %arrayidx = getelementptr inbounds ptr, ptr %1, i64 %indvars.iv
  %2 = load ptr, ptr %arrayidx, align 8
  %isnull = icmp eq ptr %2, null
  br i1 %isnull, label %delete.end, label %delete.notnull

delete.notnull:                                   ; preds = %for.body
  %vtable = load ptr, ptr %2, align 8
  %vfn = getelementptr inbounds i8, ptr %vtable, i64 8
  %3 = load ptr, ptr %vfn, align 8
  tail call void %3(ptr noundef nonnull align 8 dereferenceable(84) %2) #13
  %.pre = load ptr, ptr %trans, align 8
  br label %delete.end

delete.end:                                       ; preds = %delete.notnull, %for.body
  %4 = phi ptr [ %.pre, %delete.notnull ], [ %1, %for.body ]
  %arrayidx8 = getelementptr inbounds ptr, ptr %4, i64 %indvars.iv
  store ptr null, ptr %arrayidx8, align 8
  %indvars.iv.next = add nuw nsw i64 %indvars.iv, 1
  %5 = load i32, ptr %count11.phi.trans.insert, align 8
  %6 = sext i32 %5 to i64
  %cmp4 = icmp slt i64 %indvars.iv.next, %6
  br i1 %cmp4, label %for.body, label %if.end9, !llvm.loop !14

if.end9:                                          ; preds = %delete.end, %if.end
  %7 = phi i32 [ %.pre42, %if.end ], [ %5, %delete.end ]
  %count10 = getelementptr inbounds i8, ptr %t, i64 96
  %8 = load i32, ptr %count10, align 8
  %count11 = getelementptr inbounds i8, ptr %this, i64 96
  %cmp12 = icmp sgt i32 %8, %7
  %9 = load ptr, ptr %trans, align 8
  br i1 %cmp12, label %if.then13, label %if.end22

if.then13:                                        ; preds = %if.end9
  %cmp15.not = icmp eq ptr %9, null
  br i1 %cmp15.not, label %if.end18, label %if.then16

if.then16:                                        ; preds = %if.then13
  tail call void @uprv_free_75(ptr noundef nonnull %9)
  %.pre43 = load i32, ptr %count10, align 8
  br label %if.end18

if.end18:                                         ; preds = %if.then16, %if.then13
  %10 = phi i32 [ %.pre43, %if.then16 ], [ %8, %if.then13 ]
  %conv = sext i32 %10 to i64
  %mul = shl nsw i64 %conv, 3
  %call20 = tail call noalias ptr @uprv_malloc_75(i64 noundef %mul) #14
  store ptr %call20, ptr %trans, align 8
  %.pre44 = load i32, ptr %count10, align 8
  br label %if.end22

if.end22:                                         ; preds = %if.end9, %if.end18
  %11 = phi i32 [ %.pre44, %if.end18 ], [ %8, %if.end9 ]
  %12 = phi ptr [ %call20, %if.end18 ], [ %9, %if.end9 ]
  store i32 %11, ptr %count11, align 8
  %cmp26.not = icmp ne ptr %12, null
  %cmp3029 = icmp sgt i32 %11, 0
  %or.cond = select i1 %cmp26.not, i1 %cmp3029, i1 false
  br i1 %or.cond, label %for.body31.lr.ph, label %if.end64

for.body31.lr.ph:                                 ; preds = %if.end22
  %trans32 = getelementptr inbounds i8, ptr %t, i64 88
  br label %for.body31

for.body31:                                       ; preds = %for.body31.lr.ph, %for.inc47
  %indvars.iv35 = phi i64 [ 0, %for.body31.lr.ph ], [ %indvars.iv.next36, %for.inc47 ]
  %13 = load ptr, ptr %trans32, align 8
  %arrayidx34 = getelementptr inbounds ptr, ptr %13, i64 %indvars.iv35
  %14 = load ptr, ptr %arrayidx34, align 8
  %vtable35 = load ptr, ptr %14, align 8
  %vfn36 = getelementptr inbounds i8, ptr %vtable35, i64 24
  %15 = load ptr, ptr %vfn36, align 8
  %call37 = tail call noundef ptr %15(ptr noundef nonnull align 8 dereferenceable(84) %14)
  %16 = load ptr, ptr %trans, align 8
  %arrayidx40 = getelementptr inbounds ptr, ptr %16, i64 %indvars.iv35
  store ptr %call37, ptr %arrayidx40, align 8
  %17 = load ptr, ptr %trans, align 8
  %arrayidx43 = getelementptr inbounds ptr, ptr %17, i64 %indvars.iv35
  %18 = load ptr, ptr %arrayidx43, align 8
  %cmp44 = icmp eq ptr %18, null
  br i1 %cmp44, label %if.end50, label %for.inc47

for.inc47:                                        ; preds = %for.body31
  %indvars.iv.next36 = add nuw nsw i64 %indvars.iv35, 1
  %19 = load i32, ptr %count11, align 8
  %20 = sext i32 %19 to i64
  %cmp30 = icmp slt i64 %indvars.iv.next36, %20
  br i1 %cmp30, label %for.body31, label %if.end64, !llvm.loop !15

if.end50:                                         ; preds = %for.body31
  %21 = and i64 %indvars.iv35, 4294967295
  %cmp51.not = icmp eq i64 %21, 0
  br i1 %cmp51.not, label %if.end64, label %for.body55

for.body55:                                       ; preds = %if.end50, %for.body55
  %indvars.iv39 = phi i64 [ %indvars.iv.next40, %for.body55 ], [ %indvars.iv35, %if.end50 ]
  %indvars.iv.next40 = add nsw i64 %indvars.iv39, -1
  %22 = load ptr, ptr %trans, align 8
  %idxprom57 = and i64 %indvars.iv.next40, 4294967295
  %arrayidx58 = getelementptr inbounds ptr, ptr %22, i64 %idxprom57
  %23 = load ptr, ptr %arrayidx58, align 8
  tail call void @uprv_free_75(ptr noundef %23)
  %24 = load ptr, ptr %trans, align 8
  %arrayidx61 = getelementptr inbounds ptr, ptr %24, i64 %idxprom57
  store ptr null, ptr %arrayidx61, align 8
  %25 = icmp sgt i64 %indvars.iv39, 1
  br i1 %25, label %for.body55, label %if.end64, !llvm.loop !16

if.end64:                                         ; preds = %for.inc47, %for.body55, %if.end22, %if.end50
  %numAnonymousRBTs = getelementptr inbounds i8, ptr %t, i64 100
  %26 = load i32, ptr %numAnonymousRBTs, align 4
  %numAnonymousRBTs65 = getelementptr inbounds i8, ptr %this, i64 100
  store i32 %26, ptr %numAnonymousRBTs65, align 4
  br label %return

return:                                           ; preds = %entry, %if.end64
  ret ptr %this
}